; Function Attrs: mustprogress uwtable
define noundef signext i8 @_ZN6icu_7716SimpleDateFormat16isAtNumericFieldERKNS_13UnicodeStringEi(ptr noundef nonnull readonly align 8 captures(none) dereferenceable(64) %0, i32 noundef %1) local_unnamed_addr #1 align 2 {
  %3 = getelementptr inbounds nuw i8, ptr %0, i64 8
  %4 = load i16, ptr %3, align 8, !tbaa !51
  %5 = icmp slt i16 %4, 0
  %6 = ashr i16 %4, 5
  %7 = sext i16 %6 to i32
  %8 = getelementptr inbounds nuw i8, ptr %0, i64 12
  %9 = load i32, ptr %8, align 4
  %10 = select i1 %5, i32 %9, i32 %7
  %.not = icmp slt i32 %1, %10
  br i1 %.not, label %11, label %46

11:                                               ; preds = %2
  %12 = icmp ult i32 %1, %10
  br i1 %12, label %13, label %_ZNK6icu_7713UnicodeString6charAtEi.exit

13:                                               ; preds = %11
  %14 = and i16 %4, 2
  %.not.i.i.i = icmp eq i16 %14, 0
  %15 = getelementptr inbounds nuw i8, ptr %0, i64 10
  %16 = getelementptr inbounds nuw i8, ptr %0, i64 24
  %17 = load ptr, ptr %16, align 8
  %18 = select i1 %.not.i.i.i, ptr %17, ptr %15
  %19 = sext i32 %1 to i64
  %20 = getelementptr inbounds i16, ptr %18, i64 %19
  %21 = load i16, ptr %20, align 2, !tbaa !69
  br label %_ZNK6icu_7713UnicodeString6charAtEi.exit

_ZNK6icu_7713UnicodeString6charAtEi.exit:         ; preds = %11, %13
  %.0.i.i = phi i16 [ %21, %13 ], [ -1, %11 ]
  %22 = tail call noundef i32 @_ZN6icu_7717DateFormatSymbols19getPatternCharIndexEDs(i16 noundef zeroext %.0.i.i)
  %23 = icmp eq i32 %22, 38
  br i1 %23, label %46, label %.preheader

.preheader:                                       ; preds = %_ZNK6icu_7713UnicodeString6charAtEi.exit
  %24 = load i16, ptr %3, align 8, !tbaa !51
  %25 = icmp slt i16 %24, 0
  %26 = ashr i16 %24, 5
  %27 = sext i16 %26 to i32
  %28 = load i32, ptr %8, align 4
  %29 = select i1 %25, i32 %28, i32 %27
  %30 = and i16 %24, 2
  %.not.i.i.i17 = icmp eq i16 %30, 0
  %31 = getelementptr inbounds nuw i8, ptr %0, i64 10
  %32 = getelementptr inbounds nuw i8, ptr %0, i64 24
  %33 = load ptr, ptr %32, align 8
  %34 = select i1 %.not.i.i.i17, ptr %33, ptr %31
  %35 = sext i32 %1 to i64
  br label %36

36:                                               ; preds = %.preheader, %_ZNK6icu_7713UnicodeString6charAtEi.exit18
  %indvars.iv = phi i64 [ %35, %.preheader ], [ %indvars.iv.next, %_ZNK6icu_7713UnicodeString6charAtEi.exit18 ]
  %indvars.iv.next = add nsw i64 %indvars.iv, 1
  %37 = trunc nsw i64 %indvars.iv.next to i32
  %38 = icmp ugt i32 %29, %37
  br i1 %38, label %39, label %_ZNK6icu_7713UnicodeString6charAtEi.exit18

39:                                               ; preds = %36
  %40 = getelementptr inbounds i16, ptr %34, i64 %indvars.iv.next
  %41 = load i16, ptr %40, align 2, !tbaa !69
  br label %_ZNK6icu_7713UnicodeString6charAtEi.exit18

_ZNK6icu_7713UnicodeString6charAtEi.exit18:       ; preds = %36, %39
  %.0.i.i16 = phi i16 [ %41, %39 ], [ -1, %36 ]
  %42 = icmp eq i16 %.0.i.i16, %.0.i.i
  br i1 %42, label %36, label %43, !llvm.loop !187

43:                                               ; preds = %_ZNK6icu_7713UnicodeString6charAtEi.exit18
  %44 = sub nsw i32 %37, %1
  %45 = tail call noundef signext i8 @_ZN6icu_7717DateFormatSymbols14isNumericFieldE16UDateFormatFieldi(i32 noundef %22, i32 noundef %44)
  br label %46

46:                                               ; preds = %43, %_ZNK6icu_7713UnicodeString6charAtEi.exit, %2
  %.013 = phi i8 [ 0, %2 ], [ %45, %43 ], [ 0, %_ZNK6icu_7713UnicodeString6charAtEi.exit ]
  ret i8 %.013
}